target datalayout = "e-m:e-p270:32:32-p271:32:32-p272:64:64-i64:64-i128:128-f80:128-n8:16:32:64-S128"
target triple = "x86_64-pc-linux-gnu"

%struct.Agdisc_s = type { ptr, ptr }
%struct.Agdesc_s = type { i8, [3 x i8] }

@gprDisc = internal global %struct.Agdisc_s { ptr @AgIdDisc, ptr @gprIoDisc }, align 8
@.str.3 = private unnamed_addr constant [8 x i8] c"userval\00", align 1

; Function Attrs: nounwind uwtable
define ptr @openG(ptr noundef %0, i32 %1) #0 {
  %3 = alloca %struct.Agdesc_s, align 4
  %4 = alloca ptr, align 8
  %5 = alloca ptr, align 8
  store i32 %1, ptr %3, align 4
  store ptr %0, ptr %4, align 8, !tbaa !7
  call void @llvm.lifetime.start.p0(i64 8, ptr %5) #16
  %6 = load ptr, ptr %4, align 8, !tbaa !7
  %7 = load i32, ptr %3, align 4
  %8 = call ptr @agopen(ptr noundef %6, i32 %7, ptr noundef @gprDisc)
  store ptr %8, ptr %5, align 8, !tbaa !92
  %9 = load ptr, ptr %5, align 8, !tbaa !92
  %10 = icmp ne ptr %9, null
  br i1 %10, label %11, label %14

11:                                               ; preds = %2
  %12 = load ptr, ptr %5, align 8, !tbaa !92
  %13 = call ptr @agbindrec(ptr noundef %12, ptr noundef @.str.3, i32 noundef 24, i32 noundef 0)
  br label %14

14:                                               ; preds = %11, %2
  %15 = load ptr, ptr %5, align 8, !tbaa !92
  call void @llvm.lifetime.end.p0(i64 8, ptr %5) #16
  ret ptr %15
}