; Function Attrs: nounwind uwtable
define ptr @openG(ptr noundef %0, i32 %1) local_unnamed_addr #0 {
  %3 = tail call ptr @agopen(ptr noundef %0, i32 %1, ptr noundef nonnull @gprDisc) #25
  %.not = icmp eq ptr %3, null
  br i1 %.not, label %6, label %4

4:                                                ; preds = %2
  %5 = tail call ptr @agbindrec(ptr noundef nonnull %3, ptr noundef nonnull @.str.3, i32 noundef 24, i32 noundef 0) #25
  br label %6

6:                                                ; preds = %4, %2
  ret ptr %3
}